target datalayout = "e-m:e-p270:32:32-p271:32:32-p272:64:64-i64:64-i128:128-f80:128-n8:16:32:64-S128"
target triple = "x86_64-pc-linux-gnu"

%struct.rb_data_type_struct = type { ptr, %struct.anon, ptr, ptr, i64 }
%struct.anon = type { ptr, ptr, ptr, ptr, [1 x ptr] }

@ossl_ssl_session_type = constant %struct.rb_data_type_struct { ptr @.str, %struct.anon { ptr null, ptr @ossl_ssl_session_free, ptr null, ptr null, [1 x ptr] zeroinitializer }, ptr null, ptr null, i64 33 }, align 8
@eSSLSession = internal global i64 0, align 8
@rb_eRuntimeError = external global i64, align 8
@.str.18 = private unnamed_addr constant [32 x i8] c"SSL Session wasn't initialized.\00", align 1
@.str.23 = private unnamed_addr constant [12 x i8] c"BIO_s_mem()\00", align 1
@.str.24 = private unnamed_addr constant [20 x i8] c"SSL_SESSION_print()\00", align 1

; Function Attrs: nounwind sspstrong uwtable
define internal i64 @ossl_ssl_session_to_pem(i64 noundef %0) #0 {
  %2 = alloca i64, align 8
  %3 = alloca ptr, align 8
  %4 = alloca ptr, align 8
  store i64 %0, ptr %2, align 8, !tbaa !10
  call void @llvm.lifetime.start.p0(i64 8, ptr %3) #15
  call void @llvm.lifetime.start.p0(i64 8, ptr %4) #15
  br label %5

5:                                                ; preds = %1
  %6 = load i64, ptr %2, align 8, !tbaa !10
  %7 = call ptr @rb_check_typeddata(i64 noundef %6, ptr noundef @ossl_ssl_session_type)
  store ptr %7, ptr %3, align 8, !tbaa !18
  %8 = load ptr, ptr %3, align 8, !tbaa !18
  %9 = icmp ne ptr %8, null
  br i1 %9, label %12, label %10

10:                                               ; preds = %5
  %11 = load i64, ptr @rb_eRuntimeError, align 8, !tbaa !10
  call void (i64, ptr, ...) @ossl_raise(i64 noundef %11, ptr noundef @.str.18) #16
  unreachable

12:                                               ; preds = %5
  br label %13

13:                                               ; preds = %12
  br label %14

14:                                               ; preds = %13
  %15 = call ptr @BIO_s_mem()
  %16 = call ptr @BIO_new(ptr noundef %15)
  store ptr %16, ptr %4, align 8, !tbaa !20
  %17 = icmp ne ptr %16, null
  br i1 %17, label %20, label %18

18:                                               ; preds = %14
  %19 = load i64, ptr @eSSLSession, align 8, !tbaa !10
  call void (i64, ptr, ...) @ossl_raise(i64 noundef %19, ptr noundef @.str.23) #16
  unreachable

20:                                               ; preds = %14
  %21 = load ptr, ptr %4, align 8, !tbaa !20
  %22 = load ptr, ptr %3, align 8, !tbaa !18
  %23 = call i32 @PEM_write_bio_SSL_SESSION(ptr noundef %21, ptr noundef %22)
  %24 = icmp ne i32 %23, 0
  br i1 %24, label %29, label %25

25:                                               ; preds = %20
  %26 = load ptr, ptr %4, align 8, !tbaa !20
  %27 = call i32 @BIO_free(ptr noundef %26)
  %28 = load i64, ptr @eSSLSession, align 8, !tbaa !10
  call void (i64, ptr, ...) @ossl_raise(i64 noundef %28, ptr noundef @.str.24) #16
  unreachable

29:                                               ; preds = %20
  %30 = load ptr, ptr %4, align 8, !tbaa !20
  %31 = call i64 @ossl_membio2str(ptr noundef %30)
  call void @llvm.lifetime.end.p0(i64 8, ptr %4) #15
  call void @llvm.lifetime.end.p0(i64 8, ptr %3) #15
  ret i64 %31
}